
bufbomb:     file format elf64-x86-64


Disassembly of section .init:

0000000000400460 <_init>:
  400460:	48 83 ec 08          	sub    $0x8,%rsp
  400464:	48 8b 05 8d 0b 20 00 	mov    0x200b8d(%rip),%rax        # 600ff8 <_DYNAMIC+0x1d8>
  40046b:	48 85 c0             	test   %rax,%rax
  40046e:	74 02                	je     400472 <_init+0x12>
  400470:	ff d0                	callq  *%rax
  400472:	48 83 c4 08          	add    $0x8,%rsp
  400476:	c3                   	retq   

Disassembly of section .plt:

0000000000400480 <printf@plt-0x10>:
  400480:	ff 35 82 0b 20 00    	pushq  0x200b82(%rip)        # 601008 <_GLOBAL_OFFSET_TABLE_+0x8>
  400486:	ff 25 84 0b 20 00    	jmpq   *0x200b84(%rip)        # 601010 <_GLOBAL_OFFSET_TABLE_+0x10>
  40048c:	0f 1f 40 00          	nopl   0x0(%rax)

0000000000400490 <printf@plt>:
  400490:	ff 25 82 0b 20 00    	jmpq   *0x200b82(%rip)        # 601018 <_GLOBAL_OFFSET_TABLE_+0x18>
  400496:	68 00 00 00 00       	pushq  $0x0
  40049b:	e9 e0 ff ff ff       	jmpq   400480 <_init+0x20>

00000000004004a0 <getchar@plt>:
  4004a0:	ff 25 7a 0b 20 00    	jmpq   *0x200b7a(%rip)        # 601020 <_GLOBAL_OFFSET_TABLE_+0x20>
  4004a6:	68 01 00 00 00       	pushq  $0x1
  4004ab:	e9 d0 ff ff ff       	jmpq   400480 <_init+0x20>

00000000004004b0 <__ctype_b_loc@plt>:
  4004b0:	ff 25 72 0b 20 00    	jmpq   *0x200b72(%rip)        # 601028 <_GLOBAL_OFFSET_TABLE_+0x28>
  4004b6:	68 02 00 00 00       	pushq  $0x2
  4004bb:	e9 c0 ff ff ff       	jmpq   400480 <_init+0x20>

Disassembly of section .text:

00000000004004c0 <_start>:
  4004c0:	31 ed                	xor    %ebp,%ebp
  4004c2:	49 89 d1             	mov    %rdx,%r9
  4004c5:	5e                   	pop    %rsi
  4004c6:	48 89 e2             	mov    %rsp,%rdx
  4004c9:	48 83 e4 f0          	and    $0xfffffffffffffff0,%rsp
  4004cd:	50                   	push   %rax
  4004ce:	54                   	push   %rsp
  4004cf:	49 c7 c0 d0 07 40 00 	mov    $0x4007d0,%r8
  4004d6:	48 c7 c1 60 07 40 00 	mov    $0x400760,%rcx
  4004dd:	48 c7 c7 f1 06 40 00 	mov    $0x4006f1,%rdi
  4004e4:	ff 15 06 0b 20 00    	callq  *0x200b06(%rip)        # 600ff0 <_DYNAMIC+0x1d0>
  4004ea:	f4                   	hlt    
  4004eb:	0f 1f 44 00 00       	nopl   0x0(%rax,%rax,1)

00000000004004f0 <deregister_tm_clones>:
  4004f0:	b8 47 10 60 00       	mov    $0x601047,%eax
  4004f5:	55                   	push   %rbp
  4004f6:	48 2d 40 10 60 00    	sub    $0x601040,%rax
  4004fc:	48 83 f8 0e          	cmp    $0xe,%rax
  400500:	48 89 e5             	mov    %rsp,%rbp
  400503:	76 1b                	jbe    400520 <deregister_tm_clones+0x30>
  400505:	b8 00 00 00 00       	mov    $0x0,%eax
  40050a:	48 85 c0             	test   %rax,%rax
  40050d:	74 11                	je     400520 <deregister_tm_clones+0x30>
  40050f:	5d                   	pop    %rbp
  400510:	bf 40 10 60 00       	mov    $0x601040,%edi
  400515:	ff e0                	jmpq   *%rax
  400517:	66 0f 1f 84 00 00 00 	nopw   0x0(%rax,%rax,1)
  40051e:	00 00 
  400520:	5d                   	pop    %rbp
  400521:	c3                   	retq   
  400522:	0f 1f 40 00          	nopl   0x0(%rax)
  400526:	66 2e 0f 1f 84 00 00 	nopw   %cs:0x0(%rax,%rax,1)
  40052d:	00 00 00 

0000000000400530 <register_tm_clones>:
  400530:	be 40 10 60 00       	mov    $0x601040,%esi
  400535:	55                   	push   %rbp
  400536:	48 81 ee 40 10 60 00 	sub    $0x601040,%rsi
  40053d:	48 c1 fe 03          	sar    $0x3,%rsi
  400541:	48 89 e5             	mov    %rsp,%rbp
  400544:	48 89 f0             	mov    %rsi,%rax
  400547:	48 c1 e8 3f          	shr    $0x3f,%rax
  40054b:	48 01 c6             	add    %rax,%rsi
  40054e:	48 d1 fe             	sar    %rsi
  400551:	74 15                	je     400568 <register_tm_clones+0x38>
  400553:	b8 00 00 00 00       	mov    $0x0,%eax
  400558:	48 85 c0             	test   %rax,%rax
  40055b:	74 0b                	je     400568 <register_tm_clones+0x38>
  40055d:	5d                   	pop    %rbp
  40055e:	bf 40 10 60 00       	mov    $0x601040,%edi
  400563:	ff e0                	jmpq   *%rax
  400565:	0f 1f 00             	nopl   (%rax)
  400568:	5d                   	pop    %rbp
  400569:	c3                   	retq   
  40056a:	66 0f 1f 44 00 00    	nopw   0x0(%rax,%rax,1)

0000000000400570 <__do_global_dtors_aux>:
  400570:	80 3d c9 0a 20 00 00 	cmpb   $0x0,0x200ac9(%rip)        # 601040 <__TMC_END__>
  400577:	75 11                	jne    40058a <__do_global_dtors_aux+0x1a>
  400579:	55                   	push   %rbp
  40057a:	48 89 e5             	mov    %rsp,%rbp
  40057d:	e8 6e ff ff ff       	callq  4004f0 <deregister_tm_clones>
  400582:	5d                   	pop    %rbp
  400583:	c6 05 b6 0a 20 00 01 	movb   $0x1,0x200ab6(%rip)        # 601040 <__TMC_END__>
  40058a:	f3 c3                	repz retq 
  40058c:	0f 1f 40 00          	nopl   0x0(%rax)

0000000000400590 <frame_dummy>:
  400590:	bf 18 0e 60 00       	mov    $0x600e18,%edi
  400595:	48 83 3f 00          	cmpq   $0x0,(%rdi)
  400599:	75 05                	jne    4005a0 <frame_dummy+0x10>
  40059b:	eb 93                	jmp    400530 <register_tm_clones>
  40059d:	0f 1f 00             	nopl   (%rax)
  4005a0:	b8 00 00 00 00       	mov    $0x0,%eax
  4005a5:	48 85 c0             	test   %rax,%rax
  4005a8:	74 f1                	je     40059b <frame_dummy+0xb>
  4005aa:	55                   	push   %rbp
  4005ab:	48 89 e5             	mov    %rsp,%rbp
  4005ae:	ff d0                	callq  *%rax
  4005b0:	5d                   	pop    %rbp
  4005b1:	e9 7a ff ff ff       	jmpq   400530 <register_tm_clones>

00000000004005b6 <getxs>:
  4005b6:	55                   	push   %rbp
  4005b7:	48 89 e5             	mov    %rsp,%rbp
  4005ba:	48 83 ec 30          	sub    $0x30,%rsp
  4005be:	48 89 7d d8          	mov    %rdi,-0x28(%rbp)
  4005c2:	c7 45 fc 01 00 00 00 	movl   $0x1,-0x4(%rbp)
  4005c9:	c7 45 f8 00 00 00 00 	movl   $0x0,-0x8(%rbp)
  4005d0:	48 8b 45 d8          	mov    -0x28(%rbp),%rax
  4005d4:	48 89 45 f0          	mov    %rax,-0x10(%rbp)
  4005d8:	e9 91 00 00 00       	jmpq   40066e <getxs+0xb8>
  4005dd:	e8 ce fe ff ff       	callq  4004b0 <__ctype_b_loc@plt>
  4005e2:	48 8b 00             	mov    (%rax),%rax
  4005e5:	8b 55 e8             	mov    -0x18(%rbp),%edx
  4005e8:	48 63 d2             	movslq %edx,%rdx
  4005eb:	48 01 d2             	add    %rdx,%rdx
  4005ee:	48 01 d0             	add    %rdx,%rax
  4005f1:	0f b7 00             	movzwl (%rax),%eax
  4005f4:	0f b7 c0             	movzwl %ax,%eax
  4005f7:	25 00 10 00 00       	and    $0x1000,%eax
  4005fc:	85 c0                	test   %eax,%eax
  4005fe:	74 6e                	je     40066e <getxs+0xb8>
  400600:	83 7d e8 2f          	cmpl   $0x2f,-0x18(%rbp)
  400604:	7e 11                	jle    400617 <getxs+0x61>
  400606:	83 7d e8 39          	cmpl   $0x39,-0x18(%rbp)
  40060a:	7f 0b                	jg     400617 <getxs+0x61>
  40060c:	8b 45 e8             	mov    -0x18(%rbp),%eax
  40060f:	83 e8 30             	sub    $0x30,%eax
  400612:	89 45 ec             	mov    %eax,-0x14(%rbp)
  400615:	eb 20                	jmp    400637 <getxs+0x81>
  400617:	83 7d e8 40          	cmpl   $0x40,-0x18(%rbp)
  40061b:	7e 11                	jle    40062e <getxs+0x78>
  40061d:	83 7d e8 46          	cmpl   $0x46,-0x18(%rbp)
  400621:	7f 0b                	jg     40062e <getxs+0x78>
  400623:	8b 45 e8             	mov    -0x18(%rbp),%eax
  400626:	83 e8 37             	sub    $0x37,%eax
  400629:	89 45 ec             	mov    %eax,-0x14(%rbp)
  40062c:	eb 09                	jmp    400637 <getxs+0x81>
  40062e:	8b 45 e8             	mov    -0x18(%rbp),%eax
  400631:	83 e8 57             	sub    $0x57,%eax
  400634:	89 45 ec             	mov    %eax,-0x14(%rbp)
  400637:	83 7d fc 00          	cmpl   $0x0,-0x4(%rbp)
  40063b:	74 0f                	je     40064c <getxs+0x96>
  40063d:	8b 45 ec             	mov    -0x14(%rbp),%eax
  400640:	89 45 f8             	mov    %eax,-0x8(%rbp)
  400643:	c7 45 fc 00 00 00 00 	movl   $0x0,-0x4(%rbp)
  40064a:	eb 22                	jmp    40066e <getxs+0xb8>
  40064c:	48 8b 45 f0          	mov    -0x10(%rbp),%rax
  400650:	48 8d 50 01          	lea    0x1(%rax),%rdx
  400654:	48 89 55 f0          	mov    %rdx,-0x10(%rbp)
  400658:	8b 55 f8             	mov    -0x8(%rbp),%edx
  40065b:	89 d1                	mov    %edx,%ecx
  40065d:	c1 e1 04             	shl    $0x4,%ecx
  400660:	8b 55 ec             	mov    -0x14(%rbp),%edx
  400663:	01 ca                	add    %ecx,%edx
  400665:	88 10                	mov    %dl,(%rax)
  400667:	c7 45 fc 01 00 00 00 	movl   $0x1,-0x4(%rbp)
  40066e:	e8 2d fe ff ff       	callq  4004a0 <getchar@plt>
  400673:	89 45 e8             	mov    %eax,-0x18(%rbp)
  400676:	83 7d e8 ff          	cmpl   $0xffffffff,-0x18(%rbp)
  40067a:	74 0a                	je     400686 <getxs+0xd0>
  40067c:	83 7d e8 0a          	cmpl   $0xa,-0x18(%rbp)
  400680:	0f 85 57 ff ff ff    	jne    4005dd <getxs+0x27>
  400686:	48 8b 45 f0          	mov    -0x10(%rbp),%rax
  40068a:	48 8d 50 01          	lea    0x1(%rax),%rdx
  40068e:	48 89 55 f0          	mov    %rdx,-0x10(%rbp)
  400692:	c6 00 00             	movb   $0x0,(%rax)
  400695:	48 8b 45 d8          	mov    -0x28(%rbp),%rax
  400699:	c9                   	leaveq 
  40069a:	c3                   	retq   

000000000040069b <getbuf>:
  40069b:	55                   	push   %rbp
  40069c:	48 89 e5             	mov    %rsp,%rbp
  40069f:	48 83 ec 10          	sub    $0x10,%rsp
  4006a3:	48 8d 45 f0          	lea    -0x10(%rbp),%rax
  4006a7:	48 89 c7             	mov    %rax,%rdi
  4006aa:	e8 07 ff ff ff       	callq  4005b6 <getxs>
  4006af:	b8 01 00 00 00       	mov    $0x1,%eax
  4006b4:	c9                   	leaveq 
  4006b5:	c3                   	retq   

00000000004006b6 <test>:
  4006b6:	55                   	push   %rbp
  4006b7:	48 89 e5             	mov    %rsp,%rbp
  4006ba:	48 83 ec 10          	sub    $0x10,%rsp
  4006be:	bf e4 07 40 00       	mov    $0x4007e4,%edi
  4006c3:	b8 00 00 00 00       	mov    $0x0,%eax
  4006c8:	e8 c3 fd ff ff       	callq  400490 <printf@plt>
  4006cd:	b8 00 00 00 00       	mov    $0x0,%eax
  4006d2:	e8 c4 ff ff ff       	callq  40069b <getbuf>
  4006d7:	89 45 fc             	mov    %eax,-0x4(%rbp)
  4006da:	8b 45 fc             	mov    -0x4(%rbp),%eax
  4006dd:	89 c6                	mov    %eax,%esi
  4006df:	bf f5 07 40 00       	mov    $0x4007f5,%edi
  4006e4:	b8 00 00 00 00       	mov    $0x0,%eax
  4006e9:	e8 a2 fd ff ff       	callq  400490 <printf@plt>
  4006ee:	90                   	nop
  4006ef:	c9                   	leaveq 
  4006f0:	c3                   	retq   

00000000004006f1 <main>:
  4006f1:	55                   	push   %rbp
  4006f2:	48 89 e5             	mov    %rsp,%rbp
  4006f5:	48 83 ec 50          	sub    $0x50,%rsp
  4006f9:	48 8d 45 b0          	lea    -0x50(%rbp),%rax
  4006fd:	25 ff 0f 00 00       	and    $0xfff,%eax
  400702:	89 45 fc             	mov    %eax,-0x4(%rbp)
  400705:	8b 45 fc             	mov    -0x4(%rbp),%eax
  400708:	48 98                	cltq   
  40070a:	48 8d 50 0f          	lea    0xf(%rax),%rdx
  40070e:	b8 10 00 00 00       	mov    $0x10,%eax
  400713:	48 83 e8 01          	sub    $0x1,%rax
  400717:	48 01 d0             	add    %rdx,%rax
  40071a:	b9 10 00 00 00       	mov    $0x10,%ecx
  40071f:	ba 00 00 00 00       	mov    $0x0,%edx
  400724:	48 f7 f1             	div    %rcx
  400727:	48 6b c0 10          	imul   $0x10,%rax,%rax
  40072b:	48 29 c4             	sub    %rax,%rsp
  40072e:	48 89 e0             	mov    %rsp,%rax
  400731:	48 83 c0 0f          	add    $0xf,%rax
  400735:	48 c1 e8 04          	shr    $0x4,%rax
  400739:	48 c1 e0 04          	shl    $0x4,%rax
  40073d:	48 89 45 f0          	mov    %rax,-0x10(%rbp)
  400741:	48 8b 45 f0          	mov    -0x10(%rbp),%rax
  400745:	c7 00 00 00 00 00    	movl   $0x0,(%rax)
  40074b:	b8 00 00 00 00       	mov    $0x0,%eax
  400750:	e8 61 ff ff ff       	callq  4006b6 <test>
  400755:	b8 00 00 00 00       	mov    $0x0,%eax
  40075a:	c9                   	leaveq 
  40075b:	c3                   	retq   
  40075c:	0f 1f 40 00          	nopl   0x0(%rax)

0000000000400760 <__libc_csu_init>:
  400760:	41 57                	push   %r15
  400762:	41 56                	push   %r14
  400764:	41 89 ff             	mov    %edi,%r15d
  400767:	41 55                	push   %r13
  400769:	41 54                	push   %r12
  40076b:	4c 8d 25 96 06 20 00 	lea    0x200696(%rip),%r12        # 600e08 <__frame_dummy_init_array_entry>
  400772:	55                   	push   %rbp
  400773:	48 8d 2d 96 06 20 00 	lea    0x200696(%rip),%rbp        # 600e10 <__init_array_end>
  40077a:	53                   	push   %rbx
  40077b:	49 89 f6             	mov    %rsi,%r14
  40077e:	49 89 d5             	mov    %rdx,%r13
  400781:	4c 29 e5             	sub    %r12,%rbp
  400784:	48 83 ec 08          	sub    $0x8,%rsp
  400788:	48 c1 fd 03          	sar    $0x3,%rbp
  40078c:	e8 cf fc ff ff       	callq  400460 <_init>
  400791:	48 85 ed             	test   %rbp,%rbp
  400794:	74 20                	je     4007b6 <__libc_csu_init+0x56>
  400796:	31 db                	xor    %ebx,%ebx
  400798:	0f 1f 84 00 00 00 00 	nopl   0x0(%rax,%rax,1)
  40079f:	00 
  4007a0:	4c 89 ea             	mov    %r13,%rdx
  4007a3:	4c 89 f6             	mov    %r14,%rsi
  4007a6:	44 89 ff             	mov    %r15d,%edi
  4007a9:	41 ff 14 dc          	callq  *(%r12,%rbx,8)
  4007ad:	48 83 c3 01          	add    $0x1,%rbx
  4007b1:	48 39 dd             	cmp    %rbx,%rbp
  4007b4:	75 ea                	jne    4007a0 <__libc_csu_init+0x40>
  4007b6:	48 83 c4 08          	add    $0x8,%rsp
  4007ba:	5b                   	pop    %rbx
  4007bb:	5d                   	pop    %rbp
  4007bc:	41 5c                	pop    %r12
  4007be:	41 5d                	pop    %r13
  4007c0:	41 5e                	pop    %r14
  4007c2:	41 5f                	pop    %r15
  4007c4:	c3                   	retq   
  4007c5:	90                   	nop
  4007c6:	66 2e 0f 1f 84 00 00 	nopw   %cs:0x0(%rax,%rax,1)
  4007cd:	00 00 00 

00000000004007d0 <__libc_csu_fini>:
  4007d0:	f3 c3                	repz retq 

Disassembly of section .fini:

00000000004007d4 <_fini>:
  4007d4:	48 83 ec 08          	sub    $0x8,%rsp
  4007d8:	48 83 c4 08          	add    $0x8,%rsp
  4007dc:	c3                   	retq   
